target datalayout = "e-m:e-p270:32:32-p271:32:32-p272:64:64-i64:64-i128:128-f80:128-n8:16:32:64-S128"
target triple = "x86_64-pc-linux-gnu"

%"class.std::__cxx11::basic_string" = type { %"struct.std::__cxx11::basic_string<char>::_Alloc_hider", i64, %union.anon }
%"struct.std::__cxx11::basic_string<char>::_Alloc_hider" = type { ptr }
%union.anon = type { i64, [8 x i8] }
%struct.t_commrec = type <{ i8, [3 x i8], i32, i32, i32, i32, [4 x i8], ptr, ptr, i32, [4 x i8], ptr, i32, i32, %struct.gmx_nodecomm_t, %"class.std::unique_ptr.17", %"class.std::unique_ptr.25", ptr, ptr, i32, [4 x i8] }>
%struct.gmx_nodecomm_t = type { i8, ptr, i32, ptr }
%"class.std::unique_ptr.17" = type { %"struct.std::__uniq_ptr_data.18" }
%"struct.std::__uniq_ptr_data.18" = type { %"class.std::__uniq_ptr_impl.19" }
%"class.std::__uniq_ptr_impl.19" = type { %"class.std::tuple.20" }
%"class.std::tuple.20" = type { %"struct.std::_Tuple_impl.21" }
%"struct.std::_Tuple_impl.21" = type { %"struct.std::_Head_base.24" }
%"struct.std::_Head_base.24" = type { ptr }
%"class.std::unique_ptr.25" = type { %"struct.std::__uniq_ptr_data.26" }
%"struct.std::__uniq_ptr_data.26" = type { %"class.std::__uniq_ptr_impl.27" }
%"class.std::__uniq_ptr_impl.27" = type { %"class.std::tuple.28" }
%"class.std::tuple.28" = type { %"struct.std::_Tuple_impl.29" }
%"struct.std::_Tuple_impl.29" = type { %"struct.std::_Head_base.32" }
%"struct.std::_Head_base.32" = type { ptr }
%struct.t_swapGroup = type { ptr, i32, ptr, %"struct.gmx::EnumerationArray.169" }
%"struct.gmx::EnumerationArray.169" = type { [2 x i32] }

@_ZL3SwSB5cxx11 = internal global %"class.std::__cxx11::basic_string" zeroinitializer, align 8
@_ZL8SwSEmptyB5cxx11 = internal global %"class.std::__cxx11::basic_string" zeroinitializer, align 8
@.str.4 = private unnamed_addr constant [125 x i8] c"generated/home/dtcxzyw/WorkSpace/Projects/compilers/llvm-opt-benchmark/bench/gromacs/gromacs/src/gromacs/swap/swapcoords.cpp\00", align 1
@.str.51 = private unnamed_addr constant [223 x i8] c"%s Inconsistency while importing swap-related data from an old input file version.\0A%s The requested ion counts in compartments A (%d) and B (%d)\0A%s do not add up to the number of ions (%d) of this type for the group '%s'.\0A\00", align 1
@.str.52 = private unnamed_addr constant [7 x i8] c"g->ind\00", align 1

; Function Attrs: mustprogress nounwind uwtable
define available_externally noundef ptr @_ZNKSt7__cxx1112basic_stringIcSt11char_traitsIcESaIcEE7_M_dataEv(ptr noundef nonnull align 8 dereferenceable(32) %0) #2 align 2 {
  %2 = alloca ptr, align 8
  store ptr %0, ptr %2, align 8, !tbaa !9
  %3 = load ptr, ptr %2, align 8
  %4 = getelementptr inbounds nuw %"class.std::__cxx11::basic_string", ptr %3, i32 0, i32 0
  %5 = getelementptr inbounds nuw %"struct.std::__cxx11::basic_string<char>::_Alloc_hider", ptr %4, i32 0, i32 0
  %6 = load ptr, ptr %5, align 8, !tbaa !23
  ret ptr %6
}

; Function Attrs: inlinehint mustprogress uwtable
define internal void @_ZL15gmx_srenew_implIiEvPKcS1_iRPT_m(ptr noundef %0, ptr noundef %1, i32 noundef %2, ptr noundef nonnull align 8 dereferenceable(8) %3, i64 noundef %4) #7 {
  %6 = alloca ptr, align 8
  %7 = alloca ptr, align 8
  %8 = alloca i32, align 4
  %9 = alloca ptr, align 8
  %10 = alloca i64, align 8
  store ptr %0, ptr %6, align 8, !tbaa !11
  store ptr %1, ptr %7, align 8, !tbaa !11
  store i32 %2, ptr %8, align 4, !tbaa !120
  store ptr %3, ptr %9, align 8, !tbaa !420
  store i64 %4, ptr %10, align 8, !tbaa !19
  %11 = load ptr, ptr %6, align 8, !tbaa !11
  %12 = load ptr, ptr %7, align 8, !tbaa !11
  %13 = load i32, ptr %8, align 4, !tbaa !120
  %14 = load ptr, ptr %9, align 8, !tbaa !420
  %15 = load ptr, ptr %14, align 8, !tbaa !121
  %16 = load i64, ptr %10, align 8, !tbaa !19
  %17 = call noundef ptr @_Z12save_reallocPKcS0_iPvmm(ptr noundef %11, ptr noundef %12, i32 noundef %13, ptr noundef %15, i64 noundef %16, i64 noundef 4)
  %18 = load ptr, ptr %9, align 8, !tbaa !420
  store ptr %17, ptr %18, align 8, !tbaa !121
  ret void
}

; Function Attrs: mustprogress nounwind uwtable
define available_externally noundef ptr @_ZNKSt7__cxx1112basic_stringIcSt11char_traitsIcESaIcEE5c_strEv(ptr noundef nonnull align 8 dereferenceable(32) %0) #2 align 2 {
  %2 = alloca ptr, align 8
  store ptr %0, ptr %2, align 8, !tbaa !9
  %3 = load ptr, ptr %2, align 8
  %4 = call noundef ptr @_ZNKSt7__cxx1112basic_stringIcSt11char_traitsIcESaIcEE7_M_dataEv(ptr noundef nonnull align 8 dereferenceable(32) %3)
  ret ptr %4
}

; Function Attrs: mustprogress nounwind uwtable
define linkonce_odr noundef nonnull align 4 dereferenceable(4) ptr @_ZN3gmx16EnumerationArrayI11CompartmentiLS1_2EEixES1_(ptr noundef nonnull align 4 dereferenceable(8) %0, i32 noundef %1) #2 comdat align 2 {
  %3 = alloca ptr, align 8
  %4 = alloca i32, align 4
  store ptr %0, ptr %3, align 8, !tbaa !532
  store i32 %1, ptr %4, align 4, !tbaa !117
  %5 = load ptr, ptr %3, align 8
  %6 = getelementptr inbounds nuw %"struct.gmx::EnumerationArray.169", ptr %5, i32 0, i32 0
  %7 = load i32, ptr %4, align 4, !tbaa !117
  %8 = sext i32 %7 to i64
  %9 = getelementptr inbounds nuw [2 x i32], ptr %6, i64 0, i64 %8
  ret ptr %9
}

; Function Attrs: mustprogress uwtable
define internal void @_ZL18copyIndicesToGroupPKiiP11t_swapGroupP9t_commrec(ptr noundef %0, i32 noundef %1, ptr noundef %2, ptr noundef %3) #3 {
  %5 = alloca ptr, align 8
  %6 = alloca i32, align 4
  %7 = alloca ptr, align 8
  %8 = alloca ptr, align 8
  %9 = alloca i32, align 4
  store ptr %0, ptr %5, align 8, !tbaa !121
  store i32 %1, ptr %6, align 4, !tbaa !120
  store ptr %2, ptr %7, align 8, !tbaa !407
  store ptr %3, ptr %8, align 8, !tbaa !155
  %10 = load i32, ptr %6, align 4, !tbaa !120
  %11 = load ptr, ptr %7, align 8, !tbaa !407
  %12 = getelementptr inbounds nuw %struct.t_swapGroup, ptr %11, i32 0, i32 1
  store i32 %10, ptr %12, align 8, !tbaa !306
  %13 = load ptr, ptr %7, align 8, !tbaa !407
  %14 = getelementptr inbounds nuw %struct.t_swapGroup, ptr %13, i32 0, i32 3
  %15 = call noundef nonnull align 4 dereferenceable(4) ptr @_ZN3gmx16EnumerationArrayI11CompartmentiLS1_2EEixES1_(ptr noundef nonnull align 4 dereferenceable(8) %14, i32 noundef 0)
  %16 = load i32, ptr %15, align 4, !tbaa !120
  %17 = icmp slt i32 %16, 0
  br i1 %17, label %18, label %72

18:                                               ; preds = %4
  %19 = load ptr, ptr %7, align 8, !tbaa !407
  %20 = getelementptr inbounds nuw %struct.t_swapGroup, ptr %19, i32 0, i32 3
  %21 = call noundef nonnull align 4 dereferenceable(4) ptr @_ZN3gmx16EnumerationArrayI11CompartmentiLS1_2EEixES1_(ptr noundef nonnull align 4 dereferenceable(8) %20, i32 noundef 1)
  %22 = load i32, ptr %21, align 4, !tbaa !120
  %23 = icmp slt i32 %22, 0
  br i1 %23, label %24, label %72

24:                                               ; preds = %18
  %25 = load ptr, ptr %7, align 8, !tbaa !407
  %26 = getelementptr inbounds nuw %struct.t_swapGroup, ptr %25, i32 0, i32 1
  %27 = load i32, ptr %26, align 8, !tbaa !306
  %28 = load ptr, ptr %7, align 8, !tbaa !407
  %29 = getelementptr inbounds nuw %struct.t_swapGroup, ptr %28, i32 0, i32 3
  %30 = call noundef nonnull align 4 dereferenceable(4) ptr @_ZN3gmx16EnumerationArrayI11CompartmentiLS1_2EEixES1_(ptr noundef nonnull align 4 dereferenceable(8) %29, i32 noundef 0)
  %31 = load i32, ptr %30, align 4, !tbaa !120
  %32 = load ptr, ptr %7, align 8, !tbaa !407
  %33 = getelementptr inbounds nuw %struct.t_swapGroup, ptr %32, i32 0, i32 3
  %34 = call noundef nonnull align 4 dereferenceable(4) ptr @_ZN3gmx16EnumerationArrayI11CompartmentiLS1_2EEixES1_(ptr noundef nonnull align 4 dereferenceable(8) %33, i32 noundef 1)
  %35 = load i32, ptr %34, align 4, !tbaa !120
  %36 = add nsw i32 %31, %35
  %37 = icmp ne i32 %27, %36
  br i1 %37, label %38, label %71

38:                                               ; preds = %24
  %39 = load ptr, ptr %8, align 8, !tbaa !155
  %40 = getelementptr inbounds nuw %struct.t_commrec, ptr %39, i32 0, i32 7
  %41 = load ptr, ptr %40, align 8, !tbaa !530
  %42 = load ptr, ptr %8, align 8, !tbaa !155
  %43 = getelementptr inbounds nuw %struct.t_commrec, ptr %42, i32 0, i32 13
  %44 = load i32, ptr %43, align 4, !tbaa !289
  %45 = icmp eq i32 %44, 0
  br i1 %45, label %52, label %46

46:                                               ; preds = %38
  %47 = load ptr, ptr %8, align 8, !tbaa !155
  %48 = getelementptr inbounds nuw %struct.t_commrec, ptr %47, i32 0, i32 12
  %49 = load i32, ptr %48, align 8, !tbaa !167
  %50 = icmp sgt i32 %49, 1
  %51 = xor i1 %50, true
  br label %52

52:                                               ; preds = %46, %38
  %53 = phi i1 [ true, %38 ], [ %51, %46 ]
  %54 = call noundef ptr @_ZNKSt7__cxx1112basic_stringIcSt11char_traitsIcESaIcEE5c_strEv(ptr noundef nonnull align 8 dereferenceable(32) @_ZL3SwSB5cxx11) #4
  %55 = call noundef ptr @_ZNKSt7__cxx1112basic_stringIcSt11char_traitsIcESaIcEE5c_strEv(ptr noundef nonnull align 8 dereferenceable(32) @_ZL8SwSEmptyB5cxx11) #4
  %56 = load ptr, ptr %7, align 8, !tbaa !407
  %57 = getelementptr inbounds nuw %struct.t_swapGroup, ptr %56, i32 0, i32 3
  %58 = call noundef nonnull align 4 dereferenceable(4) ptr @_ZN3gmx16EnumerationArrayI11CompartmentiLS1_2EEixES1_(ptr noundef nonnull align 4 dereferenceable(8) %57, i32 noundef 0)
  %59 = load i32, ptr %58, align 4, !tbaa !120
  %60 = load ptr, ptr %7, align 8, !tbaa !407
  %61 = getelementptr inbounds nuw %struct.t_swapGroup, ptr %60, i32 0, i32 3
  %62 = call noundef nonnull align 4 dereferenceable(4) ptr @_ZN3gmx16EnumerationArrayI11CompartmentiLS1_2EEixES1_(ptr noundef nonnull align 4 dereferenceable(8) %61, i32 noundef 1)
  %63 = load i32, ptr %62, align 4, !tbaa !120
  %64 = call noundef ptr @_ZNKSt7__cxx1112basic_stringIcSt11char_traitsIcESaIcEE5c_strEv(ptr noundef nonnull align 8 dereferenceable(32) @_ZL8SwSEmptyB5cxx11) #4
  %65 = load ptr, ptr %7, align 8, !tbaa !407
  %66 = getelementptr inbounds nuw %struct.t_swapGroup, ptr %65, i32 0, i32 1
  %67 = load i32, ptr %66, align 8, !tbaa !306
  %68 = load ptr, ptr %7, align 8, !tbaa !407
  %69 = getelementptr inbounds nuw %struct.t_swapGroup, ptr %68, i32 0, i32 0
  %70 = load ptr, ptr %69, align 8, !tbaa !307
  call void (i32, ptr, i32, ptr, i1, ptr, ...) @_Z20gmx_fatal_collectiveiPKciP10tmpi_comm_bS0_z(i32 noundef 0, ptr noundef @.str.4, i32 noundef 1435, ptr noundef %41, i1 noundef zeroext %53, ptr noundef @.str.51, ptr noundef %54, ptr noundef %55, i32 noundef %59, i32 noundef %63, ptr noundef %64, i32 noundef %67, ptr noundef %70) #19
  unreachable

71:                                               ; preds = %24
  br label %72

72:                                               ; preds = %71, %18, %4
  %73 = load ptr, ptr %7, align 8, !tbaa !407
  %74 = getelementptr inbounds nuw %struct.t_swapGroup, ptr %73, i32 0, i32 2
  %75 = load ptr, ptr %7, align 8, !tbaa !407
  %76 = getelementptr inbounds nuw %struct.t_swapGroup, ptr %75, i32 0, i32 1
  %77 = load i32, ptr %76, align 8, !tbaa !306
  %78 = sext i32 %77 to i64
  call void @_ZL15gmx_srenew_implIiEvPKcS1_iRPT_m(ptr noundef @.str.52, ptr noundef @.str.4, i32 noundef 1453, ptr noundef nonnull align 8 dereferenceable(8) %74, i64 noundef %78)
  call void @llvm.lifetime.start.p0(i64 4, ptr %9) #4
  store i32 0, ptr %9, align 4, !tbaa !120
  br label %79

79:                                               ; preds = %98, %72
  %80 = load i32, ptr %9, align 4, !tbaa !120
  %81 = load ptr, ptr %7, align 8, !tbaa !407
  %82 = getelementptr inbounds nuw %struct.t_swapGroup, ptr %81, i32 0, i32 1
  %83 = load i32, ptr %82, align 8, !tbaa !306
  %84 = icmp slt i32 %80, %83
  br i1 %84, label %86, label %85

85:                                               ; preds = %79
  call void @llvm.lifetime.end.p0(i64 4, ptr %9) #4
  br label %101

86:                                               ; preds = %79
  %87 = load ptr, ptr %5, align 8, !tbaa !121
  %88 = load i32, ptr %9, align 4, !tbaa !120
  %89 = sext i32 %88 to i64
  %90 = getelementptr inbounds i32, ptr %87, i64 %89
  %91 = load i32, ptr %90, align 4, !tbaa !120
  %92 = load ptr, ptr %7, align 8, !tbaa !407
  %93 = getelementptr inbounds nuw %struct.t_swapGroup, ptr %92, i32 0, i32 2
  %94 = load ptr, ptr %93, align 8, !tbaa !303
  %95 = load i32, ptr %9, align 4, !tbaa !120
  %96 = sext i32 %95 to i64
  %97 = getelementptr inbounds i32, ptr %94, i64 %96
  store i32 %91, ptr %97, align 4, !tbaa !120
  br label %98

98:                                               ; preds = %86
  %99 = load i32, ptr %9, align 4, !tbaa !120
  %100 = add nsw i32 %99, 1
  store i32 %100, ptr %9, align 4, !tbaa !120
  br label %79, !llvm.loop !531

101:                                              ; preds = %85
  ret void
}