; Function Attrs: mustprogress uwtable
define internal fastcc void @_ZL18copyIndicesToGroupPKiiP11t_swapGroupP9t_commrec(ptr noundef readonly captures(none) %0, i32 noundef %1, ptr noundef captures(none) initializes((8, 12)) %2, ptr noundef readonly captures(none) %3) unnamed_addr #9 {
  %5 = getelementptr inbounds nuw i8, ptr %2, i64 8
  store i32 %1, ptr %5, align 8, !tbaa !172
  %6 = getelementptr inbounds nuw i8, ptr %2, i64 24
  %7 = load i32, ptr %6, align 4, !tbaa !187
  %8 = icmp slt i32 %7, 0
  br i1 %8, label %9, label %29

9:                                                ; preds = %4
  %10 = getelementptr inbounds nuw i8, ptr %2, i64 28
  %11 = load i32, ptr %10, align 4, !tbaa !187
  %12 = icmp sgt i32 %11, -1
  %13 = add nsw i32 %11, %7
  %.not = icmp eq i32 %1, %13
  %or.cond = select i1 %12, i1 true, i1 %.not
  br i1 %or.cond, label %29, label %14

14:                                               ; preds = %9
  %15 = getelementptr inbounds nuw i8, ptr %3, i64 24
  %16 = load ptr, ptr %15, align 8, !tbaa !400
  %17 = getelementptr inbounds nuw i8, ptr %3, i64 60
  %18 = load i32, ptr %17, align 4, !tbaa !159
  %19 = icmp eq i32 %18, 0
  br i1 %19, label %24, label %20

20:                                               ; preds = %14
  %21 = getelementptr inbounds nuw i8, ptr %3, i64 56
  %22 = load i32, ptr %21, align 8, !tbaa !32
  %23 = icmp slt i32 %22, 2
  br label %24

24:                                               ; preds = %20, %14
  %25 = phi i1 [ true, %14 ], [ %23, %20 ]
  %26 = load ptr, ptr @_ZL3SwSB5cxx11, align 8, !tbaa !150
  %27 = load ptr, ptr @_ZL8SwSEmptyB5cxx11, align 8, !tbaa !150
  %28 = load ptr, ptr %2, align 8, !tbaa !257
  tail call void (i32, ptr, i32, ptr, i1, ptr, ...) @_Z20gmx_fatal_collectiveiPKciP10tmpi_comm_bS0_z(i32 noundef 0, ptr noundef nonnull @.str.4, i32 noundef 1435, ptr noundef %16, i1 noundef zeroext %25, ptr noundef nonnull @.str.51, ptr noundef %26, ptr noundef %27, i32 noundef %7, i32 noundef %11, ptr noundef %27, i32 noundef %1, ptr noundef %28) #28
  unreachable

29:                                               ; preds = %9, %4
  %30 = getelementptr inbounds nuw i8, ptr %2, i64 16
  %31 = sext i32 %1 to i64
  %32 = load ptr, ptr %30, align 8, !tbaa !264
  %33 = tail call noundef ptr @_Z12save_reallocPKcS0_iPvmm(ptr noundef nonnull @.str.52, ptr noundef nonnull @.str.4, i32 noundef 1453, ptr noundef %32, i64 noundef range(i64 -2147483648, 2147483648) %31, i64 noundef 4)
  store ptr %33, ptr %30, align 8, !tbaa !264
  %34 = load i32, ptr %5, align 8, !tbaa !172
  %35 = icmp sgt i32 %34, 0
  br i1 %35, label %.lr.ph, label %._crit_edge

._crit_edge:                                      ; preds = %.lr.ph, %29
  ret void

.lr.ph:                                           ; preds = %29, %.lr.ph
  %indvars.iv = phi i64 [ %indvars.iv.next, %.lr.ph ], [ 0, %29 ]
  %36 = getelementptr inbounds nuw i32, ptr %0, i64 %indvars.iv
  %37 = load i32, ptr %36, align 4, !tbaa !187
  %38 = getelementptr inbounds nuw i32, ptr %33, i64 %indvars.iv
  store i32 %37, ptr %38, align 4, !tbaa !187
  %indvars.iv.next = add nuw nsw i64 %indvars.iv, 1
  %39 = load i32, ptr %5, align 8, !tbaa !172
  %40 = sext i32 %39 to i64
  %41 = icmp slt i64 %indvars.iv.next, %40
  br i1 %41, label %.lr.ph, label %._crit_edge, !llvm.loop !401
}